target datalayout = "e-m:e-p270:32:32-p271:32:32-p272:64:64-i64:64-i128:128-f80:128-n8:16:32:64-S128"
target triple = "x86_64-pc-linux-gnu"

%struct.lxb_html_tree = type { ptr, ptr, ptr, ptr, ptr, ptr, ptr, %struct.lxb_html_tree_pending_table_t, ptr, i8, i8, i8, i8, i8, i8, ptr, ptr, ptr, i32, i64 }
%struct.lxb_html_tree_pending_table_t = type { ptr, i8 }
%struct.lxb_html_tokenizer = type { ptr, ptr, ptr, ptr, ptr, ptr, ptr, ptr, ptr, ptr, ptr, ptr, ptr, ptr, ptr, i64, ptr, ptr, ptr, ptr, ptr, i64, i64, ptr, ptr, i64, i64, i32, i32, i8, i32, i32, i8, ptr, i64 }
%struct.lxb_html_document = type { %struct.lxb_dom_document, ptr, ptr, ptr, %struct.lxb_html_document_css_t, i8, ptr, i32, i32 }
%struct.lxb_dom_document = type { %struct.lxb_dom_node, i32, i32, ptr, ptr, ptr, ptr, ptr, ptr, ptr, ptr, ptr, ptr, ptr, ptr, ptr, ptr, ptr, ptr, ptr, i8, i8, i8 }
%struct.lxb_dom_node = type { %struct.lxb_dom_event_target, i64, i64, i64, ptr, ptr, ptr, ptr, ptr, ptr, ptr, i32, i64 }
%struct.lxb_dom_event_target = type { ptr }
%struct.lxb_html_document_css_t = type { ptr, ptr, ptr, ptr, ptr, ptr, ptr, ptr, i64 }
%struct.lxb_html_token_t = type { ptr, ptr, i64, i64, ptr, ptr, ptr, ptr, ptr, i64, i64, i32 }
%struct.lexbor_str_t = type { ptr, i64 }
%struct.lxb_dom_character_data = type { %struct.lxb_dom_node, %struct.lexbor_str_t }
%struct.lxb_dom_text = type { %struct.lxb_dom_character_data }

; Function Attrs: nounwind uwtable
define internal void @lxb_html_tree_insert_node(ptr noundef %0, ptr noundef %1, i32 noundef %2) #0 {
  %4 = alloca ptr, align 8
  %5 = alloca ptr, align 8
  %6 = alloca i32, align 4
  store ptr %0, ptr %4, align 8
  store ptr %1, ptr %5, align 8
  store i32 %2, ptr %6, align 4
  %7 = load i32, ptr %6, align 4
  %8 = icmp eq i32 %7, 1
  br i1 %8, label %9, label %12

9:                                                ; preds = %3
  %10 = load ptr, ptr %4, align 8
  %11 = load ptr, ptr %5, align 8
  call void @lxb_dom_node_insert_before_wo_events(ptr noundef %10, ptr noundef %11)
  br label %15

12:                                               ; preds = %3
  %13 = load ptr, ptr %4, align 8
  %14 = load ptr, ptr %5, align 8
  call void @lxb_dom_node_insert_child_wo_events(ptr noundef %13, ptr noundef %14)
  br label %15

15:                                               ; preds = %12, %9
  ret void
}

; Function Attrs: nounwind uwtable
define internal ptr @lxb_html_tree_create_node(ptr noundef %0, i64 noundef %1, i64 noundef %2) #0 {
  %4 = alloca ptr, align 8
  %5 = alloca i64, align 8
  %6 = alloca i64, align 8
  store ptr %0, ptr %4, align 8
  store i64 %1, ptr %5, align 8
  store i64 %2, ptr %6, align 8
  %7 = load ptr, ptr %4, align 8
  %8 = getelementptr inbounds %struct.lxb_html_tree, ptr %7, i32 0, i32 1
  %9 = load ptr, ptr %8, align 8
  %10 = load i64, ptr %5, align 8
  %11 = load i64, ptr %6, align 8
  %12 = call ptr @lxb_html_interface_create(ptr noundef %9, i64 noundef %10, i64 noundef %11)
  ret ptr %12
}

; Function Attrs: nounwind uwtable
define internal zeroext i1 @lxb_html_tree_node_is(ptr noundef %0, i64 noundef %1) #0 {
  %3 = alloca ptr, align 8
  %4 = alloca i64, align 8
  store ptr %0, ptr %3, align 8
  store i64 %1, ptr %4, align 8
  %5 = load ptr, ptr %3, align 8
  %6 = getelementptr inbounds %struct.lxb_dom_node, ptr %5, i32 0, i32 1
  %7 = load i64, ptr %6, align 8
  %8 = load i64, ptr %4, align 8
  %9 = icmp eq i64 %7, %8
  br i1 %9, label %10, label %15

10:                                               ; preds = %2
  %11 = load ptr, ptr %3, align 8
  %12 = getelementptr inbounds %struct.lxb_dom_node, ptr %11, i32 0, i32 3
  %13 = load i64, ptr %12, align 8
  %14 = icmp eq i64 %13, 2
  br label %15

15:                                               ; preds = %10, %2
  %16 = phi i1 [ false, %2 ], [ %14, %10 ]
  ret i1 %16
}

; Function Attrs: nounwind uwtable
define hidden i32 @lxb_html_tree_insert_character_for_data(ptr noundef %0, ptr noundef %1, ptr noundef %2) #0 {
  %4 = alloca i32, align 4
  %5 = alloca ptr, align 8
  %6 = alloca ptr, align 8
  %7 = alloca ptr, align 8
  %8 = alloca ptr, align 8
  %9 = alloca ptr, align 8
  %10 = alloca ptr, align 8
  %11 = alloca i32, align 4
  %12 = alloca ptr, align 8
  store ptr %0, ptr %5, align 8
  store ptr %1, ptr %6, align 8
  store ptr %2, ptr %7, align 8
  store ptr null, ptr %10, align 8
  %13 = load ptr, ptr %7, align 8
  %14 = icmp ne ptr %13, null
  br i1 %14, label %15, label %17

15:                                               ; preds = %3
  %16 = load ptr, ptr %7, align 8
  store ptr null, ptr %16, align 8
  br label %17

17:                                               ; preds = %15, %3
  %18 = load ptr, ptr %5, align 8
  %19 = call ptr @lxb_html_tree_appropriate_place_inserting_node(ptr noundef %18, ptr noundef null, ptr noundef %11)
  store ptr %19, ptr %9, align 8
  %20 = load ptr, ptr %9, align 8
  %21 = icmp eq ptr %20, null
  br i1 %21, label %22, label %23

22:                                               ; preds = %17
  store i32 1, ptr %4, align 4
  br label %170

23:                                               ; preds = %17
  %24 = load ptr, ptr %9, align 8
  %25 = call zeroext i1 @lxb_html_tree_node_is(ptr noundef %24, i64 noundef 3)
  br i1 %25, label %26, label %27

26:                                               ; preds = %23
  br label %161

27:                                               ; preds = %23
  %28 = load i32, ptr %11, align 4
  %29 = icmp eq i32 %28, 1
  br i1 %29, label %30, label %55

30:                                               ; preds = %27
  %31 = load ptr, ptr %9, align 8
  %32 = getelementptr inbounds %struct.lxb_dom_node, ptr %31, i32 0, i32 6
  %33 = load ptr, ptr %32, align 8
  %34 = icmp ne ptr %33, null
  br i1 %34, label %35, label %54

35:                                               ; preds = %30
  %36 = load ptr, ptr %9, align 8
  %37 = getelementptr inbounds %struct.lxb_dom_node, ptr %36, i32 0, i32 6
  %38 = load ptr, ptr %37, align 8
  %39 = getelementptr inbounds %struct.lxb_dom_node, ptr %38, i32 0, i32 1
  %40 = load i64, ptr %39, align 8
  %41 = icmp eq i64 %40, 2
  br i1 %41, label %42, label %54

42:                                               ; preds = %35
  %43 = load ptr, ptr %9, align 8
  %44 = getelementptr inbounds %struct.lxb_dom_node, ptr %43, i32 0, i32 6
  %45 = load ptr, ptr %44, align 8
  store ptr %45, ptr %10, align 8
  %46 = load ptr, ptr %7, align 8
  %47 = icmp ne ptr %46, null
  br i1 %47, label %48, label %53

48:                                               ; preds = %42
  %49 = load ptr, ptr %9, align 8
  %50 = getelementptr inbounds %struct.lxb_dom_node, ptr %49, i32 0, i32 6
  %51 = load ptr, ptr %50, align 8
  %52 = load ptr, ptr %7, align 8
  store ptr %51, ptr %52, align 8
  br label %53

53:                                               ; preds = %48, %42
  br label %54

54:                                               ; preds = %53, %35, %30
  br label %80

55:                                               ; preds = %27
  %56 = load ptr, ptr %9, align 8
  %57 = getelementptr inbounds %struct.lxb_dom_node, ptr %56, i32 0, i32 9
  %58 = load ptr, ptr %57, align 8
  %59 = icmp ne ptr %58, null
  br i1 %59, label %60, label %79

60:                                               ; preds = %55
  %61 = load ptr, ptr %9, align 8
  %62 = getelementptr inbounds %struct.lxb_dom_node, ptr %61, i32 0, i32 9
  %63 = load ptr, ptr %62, align 8
  %64 = getelementptr inbounds %struct.lxb_dom_node, ptr %63, i32 0, i32 1
  %65 = load i64, ptr %64, align 8
  %66 = icmp eq i64 %65, 2
  br i1 %66, label %67, label %79

67:                                               ; preds = %60
  %68 = load ptr, ptr %9, align 8
  %69 = getelementptr inbounds %struct.lxb_dom_node, ptr %68, i32 0, i32 9
  %70 = load ptr, ptr %69, align 8
  store ptr %70, ptr %10, align 8
  %71 = load ptr, ptr %7, align 8
  %72 = icmp ne ptr %71, null
  br i1 %72, label %73, label %78

73:                                               ; preds = %67
  %74 = load ptr, ptr %9, align 8
  %75 = getelementptr inbounds %struct.lxb_dom_node, ptr %74, i32 0, i32 9
  %76 = load ptr, ptr %75, align 8
  %77 = load ptr, ptr %7, align 8
  store ptr %76, ptr %77, align 8
  br label %78

78:                                               ; preds = %73, %67
  br label %79

79:                                               ; preds = %78, %60, %55
  br label %80

80:                                               ; preds = %79, %54
  %81 = load ptr, ptr %10, align 8
  %82 = icmp ne ptr %81, null
  br i1 %82, label %83, label %126

83:                                               ; preds = %80
  %84 = load ptr, ptr %10, align 8
  %85 = getelementptr inbounds %struct.lxb_dom_character_data, ptr %84, i32 0, i32 1
  %86 = getelementptr inbounds %struct.lexbor_str_t, ptr %85, i32 0, i32 0
  %87 = load ptr, ptr %86, align 8
  %88 = icmp eq ptr %87, null
  br i1 %88, label %89, label %106

89:                                               ; preds = %83
  %90 = load ptr, ptr %10, align 8
  %91 = getelementptr inbounds %struct.lxb_dom_character_data, ptr %90, i32 0, i32 1
  %92 = load ptr, ptr %5, align 8
  %93 = getelementptr inbounds %struct.lxb_html_tree, ptr %92, i32 0, i32 1
  %94 = load ptr, ptr %93, align 8
  %95 = getelementptr inbounds %struct.lxb_html_document, ptr %94, i32 0, i32 0
  %96 = getelementptr inbounds %struct.lxb_dom_document, ptr %95, i32 0, i32 13
  %97 = load ptr, ptr %96, align 8
  %98 = load ptr, ptr %6, align 8
  %99 = getelementptr inbounds %struct.lexbor_str_t, ptr %98, i32 0, i32 1
  %100 = load i64, ptr %99, align 8
  %101 = call ptr @lexbor_str_init(ptr noundef %91, ptr noundef %97, i64 noundef %100)
  store ptr %101, ptr %8, align 8
  %102 = load ptr, ptr %8, align 8
  %103 = icmp eq ptr %102, null
  br i1 %103, label %104, label %105

104:                                              ; preds = %89
  store i32 2, ptr %4, align 4
  br label %170

105:                                              ; preds = %89
  br label %106

106:                                              ; preds = %105, %83
  %107 = load ptr, ptr %10, align 8
  %108 = getelementptr inbounds %struct.lxb_dom_character_data, ptr %107, i32 0, i32 1
  %109 = load ptr, ptr %5, align 8
  %110 = getelementptr inbounds %struct.lxb_html_tree, ptr %109, i32 0, i32 1
  %111 = load ptr, ptr %110, align 8
  %112 = getelementptr inbounds %struct.lxb_html_document, ptr %111, i32 0, i32 0
  %113 = getelementptr inbounds %struct.lxb_dom_document, ptr %112, i32 0, i32 13
  %114 = load ptr, ptr %113, align 8
  %115 = load ptr, ptr %6, align 8
  %116 = getelementptr inbounds %struct.lexbor_str_t, ptr %115, i32 0, i32 0
  %117 = load ptr, ptr %116, align 8
  %118 = load ptr, ptr %6, align 8
  %119 = getelementptr inbounds %struct.lexbor_str_t, ptr %118, i32 0, i32 1
  %120 = load i64, ptr %119, align 8
  %121 = call ptr @lexbor_str_append(ptr noundef %108, ptr noundef %114, ptr noundef %117, i64 noundef %120)
  store ptr %121, ptr %8, align 8
  %122 = load ptr, ptr %8, align 8
  %123 = icmp eq ptr %122, null
  br i1 %123, label %124, label %125

124:                                              ; preds = %106
  store i32 2, ptr %4, align 4
  br label %170

125:                                              ; preds = %106
  br label %161

126:                                              ; preds = %80
  %127 = load ptr, ptr %5, align 8
  %128 = call ptr @lxb_html_tree_create_node(ptr noundef %127, i64 noundef 2, i64 noundef 2)
  store ptr %128, ptr %12, align 8
  %129 = load ptr, ptr %12, align 8
  %130 = icmp eq ptr %129, null
  br i1 %130, label %131, label %132

131:                                              ; preds = %126
  store i32 2, ptr %4, align 4
  br label %170

132:                                              ; preds = %126
  %133 = load ptr, ptr %12, align 8
  %134 = getelementptr inbounds %struct.lxb_dom_text, ptr %133, i32 0, i32 0
  %135 = getelementptr inbounds %struct.lxb_dom_character_data, ptr %134, i32 0, i32 1
  %136 = load ptr, ptr %6, align 8
  call void @llvm.memcpy.p0.p0.i64(ptr align 8 %135, ptr align 8 %136, i64 16, i1 false)
  %137 = load ptr, ptr %5, align 8
  %138 = getelementptr inbounds %struct.lxb_html_tree, ptr %137, i32 0, i32 0
  %139 = load ptr, ptr %138, align 8
  %140 = icmp ne ptr %139, null
  br i1 %140, label %141, label %151

141:                                              ; preds = %132
  %142 = load ptr, ptr %5, align 8
  %143 = getelementptr inbounds %struct.lxb_html_tree, ptr %142, i32 0, i32 0
  %144 = load ptr, ptr %143, align 8
  %145 = getelementptr inbounds %struct.lxb_html_tokenizer, ptr %144, i32 0, i32 8
  %146 = load ptr, ptr %145, align 8
  %147 = getelementptr inbounds %struct.lxb_html_token_t, ptr %146, i32 0, i32 2
  %148 = load i64, ptr %147, align 8
  %149 = load ptr, ptr %12, align 8
  %150 = getelementptr inbounds %struct.lxb_dom_node, ptr %149, i32 0, i32 12
  store i64 %148, ptr %150, align 8
  br label %151

151:                                              ; preds = %141, %132
  %152 = load ptr, ptr %7, align 8
  %153 = icmp ne ptr %152, null
  br i1 %153, label %154, label %157

154:                                              ; preds = %151
  %155 = load ptr, ptr %12, align 8
  %156 = load ptr, ptr %7, align 8
  store ptr %155, ptr %156, align 8
  br label %157

157:                                              ; preds = %154, %151
  %158 = load ptr, ptr %9, align 8
  %159 = load ptr, ptr %12, align 8
  %160 = load i32, ptr %11, align 4
  call void @lxb_html_tree_insert_node(ptr noundef %158, ptr noundef %159, i32 noundef %160)
  store i32 0, ptr %4, align 4
  br label %170

161:                                              ; preds = %125, %26
  %162 = load ptr, ptr %6, align 8
  %163 = load ptr, ptr %5, align 8
  %164 = getelementptr inbounds %struct.lxb_html_tree, ptr %163, i32 0, i32 1
  %165 = load ptr, ptr %164, align 8
  %166 = getelementptr inbounds %struct.lxb_html_document, ptr %165, i32 0, i32 0
  %167 = getelementptr inbounds %struct.lxb_dom_document, ptr %166, i32 0, i32 13
  %168 = load ptr, ptr %167, align 8
  %169 = call ptr @lexbor_str_destroy(ptr noundef %162, ptr noundef %168, i1 noundef zeroext false)
  store i32 0, ptr %4, align 4
  br label %170

170:                                              ; preds = %161, %157, %131, %124, %104, %22
  %171 = load i32, ptr %4, align 4
  ret i32 %171
}