; Function Attrs: nounwind uwtable
define hidden noundef i32 @lxb_html_tree_insert_character_for_data(ptr noundef %0, ptr noundef %1, ptr noundef writeonly %2) local_unnamed_addr #0 {
  %4 = alloca i32, align 4
  %.not = icmp eq ptr %2, null
  br i1 %.not, label %6, label %5

5:                                                ; preds = %3
  store ptr null, ptr %2, align 8
  br label %6

6:                                                ; preds = %5, %3
  %7 = call ptr @lxb_html_tree_appropriate_place_inserting_node(ptr noundef %0, ptr noundef null, ptr noundef nonnull %4)
  %8 = icmp eq ptr %7, null
  br i1 %8, label %lxb_html_tree_insert_node.exit, label %9

9:                                                ; preds = %6
  %10 = getelementptr inbounds i8, ptr %7, i64 8
  %11 = load i64, ptr %10, align 8
  %12 = icmp eq i64 %11, 3
  br i1 %12, label %lxb_html_tree_node_is.exit, label %lxb_html_tree_node_is.exit.thread

lxb_html_tree_node_is.exit:                       ; preds = %9
  %13 = getelementptr inbounds i8, ptr %7, i64 24
  %14 = load i64, ptr %13, align 8
  %15 = icmp eq i64 %14, 2
  br i1 %15, label %72, label %lxb_html_tree_node_is.exit.thread

lxb_html_tree_node_is.exit.thread:                ; preds = %9, %lxb_html_tree_node_is.exit
  %16 = load i32, ptr %4, align 4
  %17 = icmp eq i32 %16, 1
  br i1 %17, label %18, label %25

18:                                               ; preds = %lxb_html_tree_node_is.exit.thread
  %19 = getelementptr inbounds i8, ptr %7, i64 48
  %20 = load ptr, ptr %19, align 8
  %.not50 = icmp eq ptr %20, null
  br i1 %.not50, label %.thread, label %21

21:                                               ; preds = %18
  %22 = getelementptr inbounds i8, ptr %20, i64 8
  %23 = load i64, ptr %22, align 8
  %24 = icmp ne i64 %23, 2
  %brmerge = or i1 %.not, %24
  %.mux = select i1 %24, ptr null, ptr %20
  br i1 %brmerge, label %32, label %.thread60.sink.split

25:                                               ; preds = %lxb_html_tree_node_is.exit.thread
  %26 = getelementptr inbounds i8, ptr %7, i64 72
  %27 = load ptr, ptr %26, align 8
  %.not49 = icmp eq ptr %27, null
  br i1 %.not49, label %.thread, label %28

28:                                               ; preds = %25
  %29 = getelementptr inbounds i8, ptr %27, i64 8
  %30 = load i64, ptr %29, align 8
  %31 = icmp ne i64 %30, 2
  %brmerge55 = or i1 %.not, %31
  %.mux56 = select i1 %31, ptr null, ptr %27
  br i1 %brmerge55, label %32, label %.thread60.sink.split

32:                                               ; preds = %28, %21
  %.042 = phi ptr [ %.mux, %21 ], [ %.mux56, %28 ]
  %.not51 = icmp eq ptr %.042, null
  br i1 %.not51, label %.thread, label %.thread60

.thread60.sink.split:                             ; preds = %28, %21
  %.sink = phi ptr [ %20, %21 ], [ %27, %28 ]
  store ptr %.sink, ptr %2, align 8
  br label %.thread60

.thread60:                                        ; preds = %.thread60.sink.split, %32
  %.04263 = phi ptr [ %.042, %32 ], [ %.sink, %.thread60.sink.split ]
  %33 = getelementptr inbounds i8, ptr %.04263, i64 104
  %34 = load ptr, ptr %33, align 8
  %35 = icmp eq ptr %34, null
  br i1 %35, label %36, label %45

36:                                               ; preds = %.thread60
  %37 = getelementptr inbounds i8, ptr %0, i64 8
  %38 = load ptr, ptr %37, align 8
  %39 = getelementptr inbounds i8, ptr %38, i64 192
  %40 = load ptr, ptr %39, align 8
  %41 = getelementptr inbounds i8, ptr %1, i64 8
  %42 = load i64, ptr %41, align 8
  %43 = tail call ptr @lexbor_str_init(ptr noundef nonnull %33, ptr noundef %40, i64 noundef %42) #9
  %44 = icmp eq ptr %43, null
  br i1 %44, label %lxb_html_tree_insert_node.exit, label %45

45:                                               ; preds = %36, %.thread60
  %46 = getelementptr inbounds i8, ptr %0, i64 8
  %47 = load ptr, ptr %46, align 8
  %48 = getelementptr inbounds i8, ptr %47, i64 192
  %49 = load ptr, ptr %48, align 8
  %50 = load ptr, ptr %1, align 8
  %51 = getelementptr inbounds i8, ptr %1, i64 8
  %52 = load i64, ptr %51, align 8
  %53 = tail call ptr @lexbor_str_append(ptr noundef nonnull %33, ptr noundef %49, ptr noundef %50, i64 noundef %52) #9
  %54 = icmp eq ptr %53, null
  br i1 %54, label %lxb_html_tree_insert_node.exit, label %72

.thread:                                          ; preds = %25, %18, %32
  %55 = getelementptr i8, ptr %0, i64 8
  %.val = load ptr, ptr %55, align 8
  %56 = tail call ptr @lxb_html_interface_create(ptr noundef %.val, i64 noundef 2, i64 noundef 2) #9
  %57 = icmp eq ptr %56, null
  br i1 %57, label %lxb_html_tree_insert_node.exit, label %58

58:                                               ; preds = %.thread
  %59 = getelementptr inbounds i8, ptr %56, i64 104
  tail call void @llvm.memcpy.p0.p0.i64(ptr noundef nonnull align 8 dereferenceable(16) %59, ptr noundef nonnull align 8 dereferenceable(16) %1, i64 16, i1 false)
  %60 = load ptr, ptr %0, align 8
  %.not52 = icmp eq ptr %60, null
  br i1 %.not52, label %67, label %61

61:                                               ; preds = %58
  %62 = getelementptr inbounds i8, ptr %60, i64 64
  %63 = load ptr, ptr %62, align 8
  %64 = getelementptr inbounds i8, ptr %63, i64 16
  %65 = load i64, ptr %64, align 8
  %66 = getelementptr inbounds i8, ptr %56, i64 96
  store i64 %65, ptr %66, align 8
  br label %67

67:                                               ; preds = %61, %58
  br i1 %.not, label %69, label %68

68:                                               ; preds = %67
  store ptr %56, ptr %2, align 8
  br label %69

69:                                               ; preds = %68, %67
  br i1 %17, label %70, label %71

70:                                               ; preds = %69
  tail call void @lxb_dom_node_insert_before_wo_events(ptr noundef nonnull %7, ptr noundef nonnull %56) #9
  br label %lxb_html_tree_insert_node.exit

71:                                               ; preds = %69
  tail call void @lxb_dom_node_insert_child_wo_events(ptr noundef nonnull %7, ptr noundef nonnull %56) #9
  br label %lxb_html_tree_insert_node.exit

72:                                               ; preds = %45, %lxb_html_tree_node_is.exit
  %73 = getelementptr inbounds i8, ptr %0, i64 8
  %74 = load ptr, ptr %73, align 8
  %75 = getelementptr inbounds i8, ptr %74, i64 192
  %76 = load ptr, ptr %75, align 8
  %77 = tail call ptr @lexbor_str_destroy(ptr noundef %1, ptr noundef %76, i1 noundef zeroext false) #9
  br label %lxb_html_tree_insert_node.exit

lxb_html_tree_insert_node.exit:                   ; preds = %71, %70, %.thread, %45, %36, %6, %72
  %.0 = phi i32 [ 0, %72 ], [ 1, %6 ], [ 2, %36 ], [ 2, %45 ], [ 2, %.thread ], [ 0, %70 ], [ 0, %71 ]
  ret i32 %.0
}